target datalayout = "e-m:e-p270:32:32-p271:32:32-p272:64:64-i64:64-i128:128-f80:128-n8:16:32:64-S128"
target triple = "x86_64-pc-linux-gnu"

%struct.ffc_params_st = type { ptr, ptr, ptr, ptr, ptr, i64, i32, i32, i32, i32, i32, ptr, ptr, i32 }

@.str.9 = private unnamed_addr constant [36 x i8] c"../openssl/test/ffc_internal_test.c\00", align 1
@.str.17 = private unnamed_addr constant [81 x i8] c"ossl_ffc_params_FIPS186_4_validate(NULL, &params, FFC_PARAM_TYPE_DH, &res, NULL)\00", align 1
@.str.22 = private unnamed_addr constant [92 x i8] c"ossl_ffc_params_FIPS186_4_generate(NULL, &params, FFC_PARAM_TYPE_DH, 2048, 256, &res, NULL)\00", align 1
@.str.23 = private unnamed_addr constant [43 x i8] c"ossl_ffc_params_print(bio_out, &params, 4)\00", align 1
@bio_out = external global ptr, align 8

; Function Attrs: nounwind uwtable
define internal i32 @ffc_params_gen_canonicalg_test() #0 {
  %1 = alloca i32, align 4
  %2 = alloca i32, align 4
  %3 = alloca %struct.ffc_params_st, align 8
  call void @llvm.lifetime.start.p0(i64 4, ptr %1) #3
  store i32 0, ptr %1, align 4, !tbaa !4
  call void @llvm.lifetime.start.p0(i64 4, ptr %2) #3
  store i32 -1, ptr %2, align 4, !tbaa !4
  call void @llvm.lifetime.start.p0(i64 96, ptr %3) #3
  call void @ossl_ffc_params_init(ptr noundef %3)
  %4 = getelementptr inbounds nuw %struct.ffc_params_st, ptr %3, i32 0, i32 8
  store i32 1, ptr %4, align 8, !tbaa !11
  %5 = call i32 @ossl_ffc_params_FIPS186_4_generate(ptr noundef null, ptr noundef %3, i32 noundef 1, i64 noundef 2048, i64 noundef 256, ptr noundef %2, ptr noundef null)
  %6 = icmp ne i32 %5, 0
  %7 = zext i1 %6 to i32
  %8 = call i32 @test_true(ptr noundef @.str.9, i32 noundef 376, ptr noundef @.str.22, i32 noundef %7)
  %9 = icmp ne i32 %8, 0
  br i1 %9, label %11, label %10

10:                                               ; preds = %0
  br label %27

11:                                               ; preds = %0
  %12 = call i32 @ossl_ffc_params_FIPS186_4_validate(ptr noundef null, ptr noundef %3, i32 noundef 1, ptr noundef %2, ptr noundef null)
  %13 = icmp ne i32 %12, 0
  %14 = zext i1 %13 to i32
  %15 = call i32 @test_true(ptr noundef @.str.9, i32 noundef 380, ptr noundef @.str.17, i32 noundef %14)
  %16 = icmp ne i32 %15, 0
  br i1 %16, label %18, label %17

17:                                               ; preds = %11
  br label %27

18:                                               ; preds = %11
  %19 = load ptr, ptr @bio_out, align 8, !tbaa !15
  %20 = call i32 @ossl_ffc_params_print(ptr noundef %19, ptr noundef %3, i32 noundef 4)
  %21 = icmp ne i32 %20, 0
  %22 = zext i1 %21 to i32
  %23 = call i32 @test_true(ptr noundef @.str.9, i32 noundef 383, ptr noundef @.str.23, i32 noundef %22)
  %24 = icmp ne i32 %23, 0
  br i1 %24, label %26, label %25

25:                                               ; preds = %18
  br label %27

26:                                               ; preds = %18
  store i32 1, ptr %1, align 4, !tbaa !4
  br label %27

27:                                               ; preds = %26, %25, %17, %10
  call void @ossl_ffc_params_cleanup(ptr noundef %3)
  %28 = load i32, ptr %1, align 4, !tbaa !4
  call void @llvm.lifetime.end.p0(i64 96, ptr %3) #3
  call void @llvm.lifetime.end.p0(i64 4, ptr %2) #3
  call void @llvm.lifetime.end.p0(i64 4, ptr %1) #3
  ret i32 %28
}