; Function Attrs: nounwind uwtable
define internal range(i32 0, 2) i32 @ffc_params_gen_canonicalg_test() #0 {
  %1 = alloca i32, align 4
  %2 = alloca %struct.ffc_params_st, align 8
  call void @llvm.lifetime.start.p0(i64 4, ptr nonnull %1) #3
  store i32 -1, ptr %1, align 4, !tbaa !4
  call void @llvm.lifetime.start.p0(i64 96, ptr nonnull %2) #3
  call void @ossl_ffc_params_init(ptr noundef nonnull %2) #3
  %3 = getelementptr inbounds nuw i8, ptr %2, i64 56
  store i32 1, ptr %3, align 8, !tbaa !8
  %4 = call i32 @ossl_ffc_params_FIPS186_4_generate(ptr noundef null, ptr noundef nonnull %2, i32 noundef 1, i64 noundef 2048, i64 noundef 256, ptr noundef nonnull %1, ptr noundef null) #3
  %5 = icmp ne i32 %4, 0
  %6 = zext i1 %5 to i32
  %7 = call i32 @test_true(ptr noundef nonnull @.str.9, i32 noundef 376, ptr noundef nonnull @.str.22, i32 noundef %6) #3
  %.not = icmp eq i32 %7, 0
  br i1 %.not, label %19, label %8

8:                                                ; preds = %0
  %9 = call i32 @ossl_ffc_params_FIPS186_4_validate(ptr noundef null, ptr noundef nonnull %2, i32 noundef 1, ptr noundef nonnull %1, ptr noundef null) #3
  %10 = icmp ne i32 %9, 0
  %11 = zext i1 %10 to i32
  %12 = call i32 @test_true(ptr noundef nonnull @.str.9, i32 noundef 380, ptr noundef nonnull @.str.17, i32 noundef %11) #3
  %.not1 = icmp eq i32 %12, 0
  br i1 %.not1, label %19, label %13

13:                                               ; preds = %8
  %14 = load ptr, ptr @bio_out, align 8, !tbaa !14
  %15 = call i32 @ossl_ffc_params_print(ptr noundef %14, ptr noundef nonnull %2, i32 noundef 4) #3
  %16 = icmp ne i32 %15, 0
  %17 = zext i1 %16 to i32
  %18 = call i32 @test_true(ptr noundef nonnull @.str.9, i32 noundef 383, ptr noundef nonnull @.str.23, i32 noundef %17) #3
  %.not2 = icmp ne i32 %18, 0
  %spec.select = zext i1 %.not2 to i32
  br label %19

19:                                               ; preds = %13, %8, %0
  %.0 = phi i32 [ 0, %8 ], [ 0, %0 ], [ %spec.select, %13 ]
  call void @ossl_ffc_params_cleanup(ptr noundef nonnull %2) #3
  call void @llvm.lifetime.end.p0(i64 96, ptr nonnull %2) #3
  call void @llvm.lifetime.end.p0(i64 4, ptr nonnull %1) #3
  ret i32 %.0
}